target datalayout = "e-m:e-p270:32:32-p271:32:32-p272:64:64-i64:64-i128:128-f80:128-n8:16:32:64-S128"
target triple = "x86_64-pc-linux-gnu"

%struct.Curl_easy = type { i32, i64, i64, ptr, %struct.Curl_llist_node, %struct.Curl_llist_node, i32, i32, %struct.Curl_message, %struct.easy_pollset, %struct.Names, ptr, ptr, ptr, %struct.SingleRequest, %struct.UserDefined, ptr, ptr, %struct.Progress, %struct.UrlState, ptr, %struct.PureInfo, %struct.curl_tlssessioninfo }
%struct.Curl_llist_node = type { ptr, ptr, ptr, ptr }
%struct.Curl_message = type { %struct.Curl_llist_node, %struct.CURLMsg }
%struct.CURLMsg = type { i32, ptr, %union.anon }
%union.anon = type { ptr }
%struct.easy_pollset = type { [5 x i32], i32, [5 x i8] }
%struct.Names = type { ptr, i32 }
%struct.SingleRequest = type <{ i64, i64, i64, i64, %struct.curltime, i32, i32, i32, i32, i64, i32, i32, i32, i32, ptr, ptr, %struct.bufq, i64, i64, ptr, ptr, %union.anon.0, ptr, i8, i32, [3 x i8] }>
%struct.curltime = type { i64, i32 }
%struct.bufq = type { ptr, ptr, ptr, ptr, i64, i64, i64, i32 }
%union.anon.0 = type { ptr }
%struct.UserDefined = type <{ ptr, ptr, ptr, ptr, ptr, ptr, i16, [6 x i8], i64, i64, i64, ptr, ptr, i64, i16, i16, [4 x i8], ptr, ptr, ptr, ptr, ptr, ptr, ptr, ptr, ptr, ptr, ptr, ptr, ptr, ptr, ptr, ptr, ptr, ptr, ptr, ptr, ptr, ptr, ptr, i32, i32, i32, i32, i32, [4 x i8], i64, i64, i64, i64, i64, i64, i64, i64, ptr, ptr, %struct.curl_mimepart, ptr, ptr, i64, i8, i8, i8, [5 x i8], %struct.ssl_config_data, %struct.ssl_config_data, ptr, i16, i8, i8, [4 x i8], %struct.ssl_general_config, i32, i32, i32, [4 x i8], ptr, ptr, i8, [7 x i8], i64, i8, i8, i8, i8, i32, ptr, ptr, ptr, i8, i8, [2 x i8], i32, [63 x ptr], [8 x ptr], i32, i32, i32, [4 x i8], ptr, ptr, ptr, ptr, ptr, i8, [3 x i8], i32, i32, i32, i64, %struct.Curl_data_priority, ptr, ptr, i64, ptr, i64, ptr, ptr, ptr, i8, [3 x i8], i32, i8, i8, i64, [6 x i8] }>
%struct.curl_mimepart = type { ptr, ptr, i32, i32, ptr, ptr, ptr, ptr, ptr, ptr, ptr, ptr, ptr, ptr, ptr, i64, %struct.mime_state, ptr, %struct.mime_encoder_state, i64 }
%struct.mime_state = type { i32, ptr, i64 }
%struct.mime_encoder_state = type { i64, i64, i64, [256 x i8] }
%struct.ssl_config_data = type { %struct.ssl_primary_config, i64, ptr, ptr, ptr, ptr, ptr, ptr, ptr, i16 }
%struct.ssl_primary_config = type { ptr, ptr, ptr, ptr, ptr, ptr, ptr, ptr, ptr, ptr, ptr, ptr, i8, i32, i8, i8 }
%struct.ssl_general_config = type { i64, i32 }
%struct.Curl_data_priority = type { ptr, ptr, i32, i8 }
%struct.Progress = type { i64, %struct.pgrs_dir, %struct.pgrs_dir, i64, i64, i32, i32, i64, i64, i64, i64, i64, i64, i64, i64, i64, %struct.curltime, %struct.curltime, %struct.curltime, %struct.curltime, [6 x i64], [6 x %struct.curltime], i32, i8 }
%struct.pgrs_dir = type { i64, i64, i64, %struct.pgrs_measure }
%struct.pgrs_measure = type { %struct.curltime, i64 }
%struct.UrlState = type { %struct.curltime, i64, i64, %struct.dynbuf, ptr, i64, ptr, i32, i32, i32, ptr, i64, i32, i64, i32, ptr, %struct.digestdata, %struct.digestdata, %struct.auth, %struct.auth, %struct.Curl_async, ptr, %struct.curltime, %struct.Curl_tree, %struct.Curl_llist, [15 x %struct.time_node], ptr, ptr, i64, i64, %struct.Curl_data_priority, ptr, ptr, ptr, %struct.urlpieces, ptr, ptr, ptr, ptr, ptr, i64, %struct.dynbuf, %struct.Curl_llist, [2 x %struct.curl_header], ptr, i32, ptr, ptr, %struct.store_netrc, %struct.dynamically_allocated_data, i8, i8, i8, i8, i32 }
%struct.digestdata = type { ptr, ptr, ptr, ptr, ptr, ptr, i32, i8, i8 }
%struct.auth = type { i64, i64, i64, i8 }
%struct.Curl_async = type { ptr, ptr, ptr, ptr, i32, i32, i8 }
%struct.Curl_tree = type { ptr, ptr, ptr, ptr, %struct.curltime, ptr }
%struct.time_node = type { %struct.Curl_llist_node, %struct.curltime, i32 }
%struct.urlpieces = type { ptr, ptr, ptr, ptr, ptr, ptr, ptr, ptr }
%struct.dynbuf = type { ptr, i64, i64, i64 }
%struct.Curl_llist = type { ptr, ptr, ptr, i64 }
%struct.curl_header = type { ptr, ptr, i64, i64, i32, ptr }
%struct.store_netrc = type { %struct.dynbuf, ptr, i8 }
%struct.dynamically_allocated_data = type { ptr, ptr, ptr, ptr, ptr, ptr, ptr, ptr, ptr, ptr, ptr, ptr, ptr }
%struct.PureInfo = type { i32, i32, i32, i64, i64, i64, i64, i64, ptr, ptr, i64, i32, %struct.ip_quadruple, i32, ptr, i32, %struct.curl_certinfo, i32, i8 }
%struct.ip_quadruple = type { [46 x i8], [46 x i8], i32, i32 }
%struct.curl_certinfo = type { i32, ptr }
%struct.curl_tlssessioninfo = type { i32, ptr }
%struct.curl_slist = type { ptr, ptr }

; Function Attrs: nounwind uwtable
define dso_local ptr @Curl_checkheaders(ptr noundef %0, ptr noundef %1, i64 noundef %2) #0 {
  %4 = alloca ptr, align 8
  %5 = alloca ptr, align 8
  %6 = alloca ptr, align 8
  %7 = alloca i64, align 8
  %8 = alloca ptr, align 8
  %9 = alloca i32, align 4
  store ptr %0, ptr %5, align 8, !tbaa !4
  store ptr %1, ptr %6, align 8, !tbaa !9
  store i64 %2, ptr %7, align 8, !tbaa !11
  call void @llvm.lifetime.start.p0(i64 8, ptr %8) #4
  br label %10

10:                                               ; preds = %3
  br label %11

11:                                               ; preds = %10
  br label %12

12:                                               ; preds = %11
  br label %13

13:                                               ; preds = %12
  br label %14

14:                                               ; preds = %13
  br label %15

15:                                               ; preds = %14
  %16 = load ptr, ptr %5, align 8, !tbaa !4
  %17 = getelementptr inbounds nuw %struct.Curl_easy, ptr %16, i32 0, i32 15
  %18 = getelementptr inbounds nuw %struct.UserDefined, ptr %17, i32 0, i32 54
  %19 = load ptr, ptr %18, align 8, !tbaa !13
  store ptr %19, ptr %8, align 8, !tbaa !80
  br label %20

20:                                               ; preds = %54, %15
  %21 = load ptr, ptr %8, align 8, !tbaa !80
  %22 = icmp ne ptr %21, null
  br i1 %22, label %23, label %58

23:                                               ; preds = %20
  %24 = load ptr, ptr %8, align 8, !tbaa !80
  %25 = getelementptr inbounds nuw %struct.curl_slist, ptr %24, i32 0, i32 0
  %26 = load ptr, ptr %25, align 8, !tbaa !81
  %27 = load ptr, ptr %6, align 8, !tbaa !9
  %28 = load i64, ptr %7, align 8, !tbaa !11
  %29 = call i32 @curl_strnequal(ptr noundef %26, ptr noundef %27, i64 noundef %28)
  %30 = icmp ne i32 %29, 0
  br i1 %30, label %31, label %53

31:                                               ; preds = %23
  %32 = load ptr, ptr %8, align 8, !tbaa !80
  %33 = getelementptr inbounds nuw %struct.curl_slist, ptr %32, i32 0, i32 0
  %34 = load ptr, ptr %33, align 8, !tbaa !81
  %35 = load i64, ptr %7, align 8, !tbaa !11
  %36 = getelementptr inbounds nuw i8, ptr %34, i64 %35
  %37 = load i8, ptr %36, align 1, !tbaa !83
  %38 = sext i8 %37 to i32
  %39 = icmp eq i32 %38, 58
  br i1 %39, label %49, label %40

40:                                               ; preds = %31
  %41 = load ptr, ptr %8, align 8, !tbaa !80
  %42 = getelementptr inbounds nuw %struct.curl_slist, ptr %41, i32 0, i32 0
  %43 = load ptr, ptr %42, align 8, !tbaa !81
  %44 = load i64, ptr %7, align 8, !tbaa !11
  %45 = getelementptr inbounds nuw i8, ptr %43, i64 %44
  %46 = load i8, ptr %45, align 1, !tbaa !83
  %47 = sext i8 %46 to i32
  %48 = icmp eq i32 %47, 59
  br i1 %48, label %49, label %53

49:                                               ; preds = %40, %31
  %50 = load ptr, ptr %8, align 8, !tbaa !80
  %51 = getelementptr inbounds nuw %struct.curl_slist, ptr %50, i32 0, i32 0
  %52 = load ptr, ptr %51, align 8, !tbaa !81
  store ptr %52, ptr %4, align 8
  store i32 1, ptr %9, align 4
  br label %59

53:                                               ; preds = %40, %23
  br label %54

54:                                               ; preds = %53
  %55 = load ptr, ptr %8, align 8, !tbaa !80
  %56 = getelementptr inbounds nuw %struct.curl_slist, ptr %55, i32 0, i32 1
  %57 = load ptr, ptr %56, align 8, !tbaa !84
  store ptr %57, ptr %8, align 8, !tbaa !80
  br label %20, !llvm.loop !85

58:                                               ; preds = %20
  store ptr null, ptr %4, align 8
  store i32 1, ptr %9, align 4
  br label %59

59:                                               ; preds = %58, %49
  call void @llvm.lifetime.end.p0(i64 8, ptr %8) #4
  %60 = load ptr, ptr %4, align 8
  ret ptr %60
}